target datalayout = "e-m:e-p270:32:32-p271:32:32-p272:64:64-i64:64-i128:128-f80:128-n8:16:32:64-S128"
target triple = "x86_64-pc-linux-gnu"

@.str.4 = private unnamed_addr constant [2 x i8] c" \00", align 1
@.str.34 = private unnamed_addr constant [9 x i8] c"%08lx:  \00", align 1
@.str.35 = private unnamed_addr constant [6 x i8] c"%02x \00", align 1
@.str.36 = private unnamed_addr constant [3 x i8] c"%c\00", align 1
@.str.37 = private unnamed_addr constant [2 x i8] c".\00", align 1
@.str.38 = private unnamed_addr constant [2 x i8] c"\0A\00", align 1

; Function Attrs: nounwind sspstrong uwtable
define internal void @dump_buffer(ptr noundef %0, i64 noundef %1, i64 noundef %2) #0 {
  %4 = alloca ptr, align 8
  %5 = alloca i64, align 8
  %6 = alloca i64, align 8
  %7 = alloca i64, align 8
  %8 = alloca i32, align 4
  %9 = alloca ptr, align 8
  %10 = alloca ptr, align 8
  store ptr %0, ptr %4, align 8
  store i64 %1, ptr %5, align 8
  store i64 %2, ptr %6, align 8
  call void @llvm.lifetime.start.p0(i64 8, ptr %7) #18
  store i64 0, ptr %7, align 8, !annotation !4
  call void @llvm.lifetime.start.p0(i64 4, ptr %8) #18
  store i32 0, ptr %8, align 4, !annotation !4
  call void @llvm.lifetime.start.p0(i64 8, ptr %9) #18
  store ptr null, ptr %9, align 8, !annotation !4
  store i64 0, ptr %7, align 8
  %11 = load ptr, ptr %4, align 8
  store ptr %11, ptr %9, align 8
  br label %12

12:                                               ; preds = %85, %3
  %13 = load i64, ptr %7, align 8
  %14 = load i64, ptr %6, align 8
  %15 = icmp ult i64 %13, %14
  br i1 %15, label %16, label %88

16:                                               ; preds = %12
  call void @llvm.lifetime.start.p0(i64 8, ptr %10) #18
  %17 = load ptr, ptr %9, align 8
  store ptr %17, ptr %10, align 8
  %18 = load i64, ptr %5, align 8
  %19 = load i64, ptr %7, align 8
  %20 = add i64 %18, %19
  %21 = call i32 (i32, ptr, ...) @__printf_chk(i32 noundef 1, ptr noundef @.str.34, i64 noundef %20)
  store i32 0, ptr %8, align 4
  br label %22

22:                                               ; preds = %39, %16
  %23 = load i32, ptr %8, align 4
  %24 = icmp slt i32 %23, 16
  br i1 %24, label %25, label %32

25:                                               ; preds = %22
  %26 = load i64, ptr %7, align 8
  %27 = load i32, ptr %8, align 4
  %28 = sext i32 %27 to i64
  %29 = add i64 %26, %28
  %30 = load i64, ptr %6, align 8
  %31 = icmp ult i64 %29, %30
  br label %32

32:                                               ; preds = %25, %22
  %33 = phi i1 [ false, %22 ], [ %31, %25 ]
  br i1 %33, label %34, label %44

34:                                               ; preds = %32
  %35 = load ptr, ptr %9, align 8
  %36 = load i8, ptr %35, align 1
  %37 = zext i8 %36 to i32
  %38 = call i32 (i32, ptr, ...) @__printf_chk(i32 noundef 1, ptr noundef @.str.35, i32 noundef %37)
  br label %39

39:                                               ; preds = %34
  %40 = load i32, ptr %8, align 4
  %41 = add i32 %40, 1
  store i32 %41, ptr %8, align 4
  %42 = load ptr, ptr %9, align 8
  %43 = getelementptr inbounds nuw i8, ptr %42, i32 1
  store ptr %43, ptr %9, align 8
  br label %22, !llvm.loop !13

44:                                               ; preds = %32
  %45 = call i32 (i32, ptr, ...) @__printf_chk(i32 noundef 1, ptr noundef @.str.4)
  store i32 0, ptr %8, align 4
  br label %46

46:                                               ; preds = %78, %44
  %47 = load i32, ptr %8, align 4
  %48 = icmp slt i32 %47, 16
  br i1 %48, label %49, label %56

49:                                               ; preds = %46
  %50 = load i64, ptr %7, align 8
  %51 = load i32, ptr %8, align 4
  %52 = sext i32 %51 to i64
  %53 = add i64 %50, %52
  %54 = load i64, ptr %6, align 8
  %55 = icmp ult i64 %53, %54
  br label %56

56:                                               ; preds = %49, %46
  %57 = phi i1 [ false, %46 ], [ %55, %49 ]
  br i1 %57, label %58, label %83

58:                                               ; preds = %56
  %59 = call ptr @__ctype_b_loc() #22
  %60 = load ptr, ptr %59, align 8
  %61 = load ptr, ptr %10, align 8
  %62 = load i8, ptr %61, align 1
  %63 = zext i8 %62 to i32
  %64 = sext i32 %63 to i64
  %65 = getelementptr inbounds i16, ptr %60, i64 %64
  %66 = load i16, ptr %65, align 2
  %67 = zext i16 %66 to i32
  %68 = and i32 %67, 8
  %69 = icmp ne i32 %68, 0
  br i1 %69, label %70, label %75

70:                                               ; preds = %58
  %71 = load ptr, ptr %10, align 8
  %72 = load i8, ptr %71, align 1
  %73 = zext i8 %72 to i32
  %74 = call i32 (i32, ptr, ...) @__printf_chk(i32 noundef 1, ptr noundef @.str.36, i32 noundef %73)
  br label %77

75:                                               ; preds = %58
  %76 = call i32 (i32, ptr, ...) @__printf_chk(i32 noundef 1, ptr noundef @.str.37)
  br label %77

77:                                               ; preds = %75, %70
  br label %78

78:                                               ; preds = %77
  %79 = load i32, ptr %8, align 4
  %80 = add i32 %79, 1
  store i32 %80, ptr %8, align 4
  %81 = load ptr, ptr %10, align 8
  %82 = getelementptr inbounds nuw i8, ptr %81, i32 1
  store ptr %82, ptr %10, align 8
  br label %46, !llvm.loop !14

83:                                               ; preds = %56
  %84 = call i32 (i32, ptr, ...) @__printf_chk(i32 noundef 1, ptr noundef @.str.38)
  call void @llvm.lifetime.end.p0(i64 8, ptr %10) #18
  br label %85

85:                                               ; preds = %83
  %86 = load i64, ptr %7, align 8
  %87 = add i64 %86, 16
  store i64 %87, ptr %7, align 8
  br label %12, !llvm.loop !15

88:                                               ; preds = %12
  call void @llvm.lifetime.end.p0(i64 8, ptr %9) #18
  call void @llvm.lifetime.end.p0(i64 4, ptr %8) #18
  call void @llvm.lifetime.end.p0(i64 8, ptr %7) #18
  ret void
}